target datalayout = "e-m:e-p270:32:32-p271:32:32-p272:64:64-i64:64-i128:128-f80:128-n8:16:32:64-S128"
target triple = "x86_64-pc-linux-gnu"

%"class.std::__cxx11::basic_string" = type { %"struct.std::__cxx11::basic_string<char>::_Alloc_hider", i64, %union.anon }
%"struct.std::__cxx11::basic_string<char>::_Alloc_hider" = type { ptr }
%union.anon = type { i64, [8 x i8] }
%"struct.std::array.12" = type { [24 x %"struct.std::array.13"] }
%"struct.std::array.13" = type { [4 x i32] }
%"struct.std::array.6" = type { [2 x i32] }
%"class.std::allocator" = type { i8 }
%"class.std::shared_ptr" = type { %"class.std::__shared_ptr" }
%"class.std::__shared_ptr" = type { ptr, %"class.std::__shared_count" }
%"class.std::__shared_count" = type { ptr }
%"class.open_spiel::nine_mens_morris::NineMensMorrisState" = type { %"class.open_spiel::State.base", %"struct.std::array", i32, i32, i32, i8, %"struct.std::array.6", %"struct.std::array.6", %"class.std::vector.7" }
%"class.open_spiel::State.base" = type <{ ptr, %"class.std::shared_ptr", i32, i32, %"class.std::vector", i32 }>
%"class.std::vector" = type { %"struct.std::_Vector_base" }
%"struct.std::_Vector_base" = type { %"struct.std::_Vector_base<open_spiel::State::PlayerAction, std::allocator<open_spiel::State::PlayerAction>>::_Vector_impl" }
%"struct.std::_Vector_base<open_spiel::State::PlayerAction, std::allocator<open_spiel::State::PlayerAction>>::_Vector_impl" = type { %"struct.std::_Vector_base<open_spiel::State::PlayerAction, std::allocator<open_spiel::State::PlayerAction>>::_Vector_impl_data" }
%"struct.std::_Vector_base<open_spiel::State::PlayerAction, std::allocator<open_spiel::State::PlayerAction>>::_Vector_impl_data" = type { ptr, ptr, ptr }
%"struct.std::array" = type { [24 x i32] }
%"class.std::vector.7" = type { %"struct.std::_Vector_base.8" }
%"struct.std::_Vector_base.8" = type { %"struct.std::_Vector_base<long, std::allocator<long>>::_Vector_impl" }
%"struct.std::_Vector_base<long, std::allocator<long>>::_Vector_impl" = type { %"struct.std::_Vector_base<long, std::allocator<long>>::_Vector_impl_data" }
%"struct.std::_Vector_base<long, std::allocator<long>>::_Vector_impl_data" = type { ptr, ptr, ptr }
%"class.std::initializer_list" = type { ptr, i64 }

@.str.8 = private unnamed_addr constant [15 x i8] c"Unknown state.\00", align 1

; Function Attrs: mustprogress nounwind uwtable
define linkonce_odr noundef nonnull align 4 dereferenceable(4) ptr @_ZNSt14__array_traitsIiLm4EE6_S_refERA4_Kim(ptr noundef nonnull align 4 dereferenceable(16) %0, i64 noundef %1) #6 comdat align 2 {
  %3 = alloca ptr, align 8
  %4 = alloca i64, align 8
  store ptr %0, ptr %3, align 8
  store i64 %1, ptr %4, align 8
  %5 = load ptr, ptr %3, align 8
  %6 = load i64, ptr %4, align 8
  %7 = getelementptr inbounds [4 x i32], ptr %5, i64 0, i64 %6
  ret ptr %7
}

; Function Attrs: mustprogress nounwind uwtable
define linkonce_odr noundef nonnull align 4 dereferenceable(16) ptr @_ZNSt14__array_traitsISt5arrayIiLm4EELm24EE6_S_refERA24_KS1_m(ptr noundef nonnull align 4 dereferenceable(384) %0, i64 noundef %1) #6 comdat align 2 {
  %3 = alloca ptr, align 8
  %4 = alloca i64, align 8
  store ptr %0, ptr %3, align 8
  store i64 %1, ptr %4, align 8
  %5 = load ptr, ptr %3, align 8
  %6 = load i64, ptr %4, align 8
  %7 = getelementptr inbounds [24 x %"struct.std::array.13"], ptr %5, i64 0, i64 %6
  ret ptr %7
}

; Function Attrs: mustprogress nounwind uwtable
define linkonce_odr noundef i64 @_ZNKSt16initializer_listIiE4sizeEv(ptr noundef nonnull align 8 dereferenceable(16) %0) #6 comdat align 2 {
  %2 = alloca ptr, align 8
  store ptr %0, ptr %2, align 8
  %3 = load ptr, ptr %2, align 8
  %4 = getelementptr inbounds nuw %"class.std::initializer_list", ptr %3, i32 0, i32 1
  %5 = load i64, ptr %4, align 8
  ret i64 %5
}

; Function Attrs: mustprogress nounwind uwtable
define linkonce_odr noundef nonnull align 4 dereferenceable(4) ptr @_ZNSt14__array_traitsIN10open_spiel16nine_mens_morris9CellStateELm24EE6_S_refERA24_KS2_m(ptr noundef nonnull align 4 dereferenceable(96) %0, i64 noundef %1) #6 comdat align 2 {
  %3 = alloca ptr, align 8
  %4 = alloca i64, align 8
  store ptr %0, ptr %3, align 8
  store i64 %1, ptr %4, align 8
  %5 = load ptr, ptr %3, align 8
  %6 = load i64, ptr %4, align 8
  %7 = getelementptr inbounds [24 x i32], ptr %5, i64 0, i64 %6
  ret ptr %7
}

; Function Attrs: mustprogress nounwind uwtable
define linkonce_odr noundef nonnull align 4 dereferenceable(4) ptr @_ZNKSt5arrayIiLm4EEixEm(ptr noundef nonnull align 4 dereferenceable(16) %0, i64 noundef %1) #6 comdat align 2 {
  %3 = alloca ptr, align 8
  %4 = alloca i64, align 8
  store ptr %0, ptr %3, align 8
  store i64 %1, ptr %4, align 8
  %5 = load ptr, ptr %3, align 8
  %6 = getelementptr inbounds nuw %"struct.std::array.13", ptr %5, i32 0, i32 0
  %7 = load i64, ptr %4, align 8
  %8 = call noundef nonnull align 4 dereferenceable(4) ptr @_ZNSt14__array_traitsIiLm4EE6_S_refERA4_Kim(ptr noundef nonnull align 4 dereferenceable(16) %6, i64 noundef %7) #3
  ret ptr %8
}

; Function Attrs: mustprogress nounwind uwtable
define linkonce_odr noundef nonnull align 4 dereferenceable(16) ptr @_ZNKSt5arrayIS_IiLm4EELm24EEixEm(ptr noundef nonnull align 4 dereferenceable(384) %0, i64 noundef %1) #6 comdat align 2 {
  %3 = alloca ptr, align 8
  %4 = alloca i64, align 8
  store ptr %0, ptr %3, align 8
  store i64 %1, ptr %4, align 8
  %5 = load ptr, ptr %3, align 8
  %6 = getelementptr inbounds nuw %"struct.std::array.12", ptr %5, i32 0, i32 0
  %7 = load i64, ptr %4, align 8
  %8 = call noundef nonnull align 4 dereferenceable(16) ptr @_ZNSt14__array_traitsISt5arrayIiLm4EELm24EE6_S_refERA24_KS1_m(ptr noundef nonnull align 4 dereferenceable(384) %6, i64 noundef %7) #3
  ret ptr %8
}

; Function Attrs: mustprogress nounwind uwtable
define linkonce_odr noundef ptr @_ZNKSt16initializer_listIiE3endEv(ptr noundef nonnull align 8 dereferenceable(16) %0) #6 comdat align 2 {
  %2 = alloca ptr, align 8
  store ptr %0, ptr %2, align 8
  %3 = load ptr, ptr %2, align 8
  %4 = call noundef ptr @_ZNKSt16initializer_listIiE5beginEv(ptr noundef nonnull align 8 dereferenceable(16) %3) #3
  %5 = call noundef i64 @_ZNKSt16initializer_listIiE4sizeEv(ptr noundef nonnull align 8 dereferenceable(16) %3) #3
  %6 = getelementptr inbounds i32, ptr %4, i64 %5
  ret ptr %6
}

; Function Attrs: mustprogress nounwind uwtable
define linkonce_odr noundef ptr @_ZNKSt16initializer_listIiE5beginEv(ptr noundef nonnull align 8 dereferenceable(16) %0) #6 comdat align 2 {
  %2 = alloca ptr, align 8
  store ptr %0, ptr %2, align 8
  %3 = load ptr, ptr %2, align 8
  %4 = getelementptr inbounds nuw %"class.std::initializer_list", ptr %3, i32 0, i32 0
  %5 = load ptr, ptr %4, align 8
  ret ptr %5
}

; Function Attrs: mustprogress uwtable
define noundef i32 @_ZN10open_spiel16nine_mens_morris13StateToPlayerENS0_9CellStateE(i32 noundef %0) #4 personality ptr @__gxx_personality_v0 {
  %2 = alloca i32, align 4
  %3 = alloca i32, align 4
  %4 = alloca %"class.std::__cxx11::basic_string", align 8
  %5 = alloca %"class.std::allocator", align 1
  %6 = alloca ptr, align 8
  %7 = alloca i32, align 4
  store i32 %0, ptr %3, align 4
  %8 = load i32, ptr %3, align 4
  switch i32 %8, label %12 [
    i32 0, label %9
    i32 1, label %10
    i32 2, label %11
  ]

9:                                                ; preds = %1
  store i32 -3, ptr %2, align 4
  br label %24

10:                                               ; preds = %1
  store i32 0, ptr %2, align 4
  br label %24

11:                                               ; preds = %1
  store i32 1, ptr %2, align 4
  br label %24

12:                                               ; preds = %1
  call void @_ZNSaIcEC1Ev(ptr noundef nonnull align 1 dereferenceable(1) %5) #3
  invoke void @_ZNSt7__cxx1112basic_stringIcSt11char_traitsIcESaIcEEC2IS3_EEPKcRKS3_(ptr noundef nonnull align 8 dereferenceable(32) %4, ptr noundef @.str.8, ptr noundef nonnull align 1 dereferenceable(1) %5)
          to label %13 unwind label %15

13:                                               ; preds = %12
  invoke void @_ZN10open_spiel15SpielFatalErrorERKNSt7__cxx1112basic_stringIcSt11char_traitsIcESaIcEEE(ptr noundef nonnull align 8 dereferenceable(32) %4) #16
          to label %14 unwind label %19

14:                                               ; preds = %13
  unreachable

15:                                               ; preds = %12
  %16 = landingpad { ptr, i32 }
          cleanup
  %17 = extractvalue { ptr, i32 } %16, 0
  store ptr %17, ptr %6, align 8
  %18 = extractvalue { ptr, i32 } %16, 1
  store i32 %18, ptr %7, align 4
  br label %23

19:                                               ; preds = %13
  %20 = landingpad { ptr, i32 }
          cleanup
  %21 = extractvalue { ptr, i32 } %20, 0
  store ptr %21, ptr %6, align 8
  %22 = extractvalue { ptr, i32 } %20, 1
  store i32 %22, ptr %7, align 4
  call void @_ZNSt7__cxx1112basic_stringIcSt11char_traitsIcESaIcEED1Ev(ptr noundef nonnull align 8 dereferenceable(32) %4) #3
  br label %23

23:                                               ; preds = %19, %15
  call void @_ZNSaIcED1Ev(ptr noundef nonnull align 1 dereferenceable(1) %5) #3
  br label %26

24:                                               ; preds = %11, %10, %9
  %25 = load i32, ptr %2, align 4
  ret i32 %25

26:                                               ; preds = %23
  %27 = load ptr, ptr %6, align 8
  %28 = load i32, ptr %7, align 4
  %29 = insertvalue { ptr, i32 } poison, ptr %27, 0
  %30 = insertvalue { ptr, i32 } %29, i32 %28, 1
  resume { ptr, i32 } %30
}

; Function Attrs: mustprogress nounwind uwtable
define linkonce_odr noundef nonnull align 4 dereferenceable(4) ptr @_ZNKSt5arrayIN10open_spiel16nine_mens_morris9CellStateELm24EEixEm(ptr noundef nonnull align 4 dereferenceable(96) %0, i64 noundef %1) #6 comdat align 2 {
  %3 = alloca ptr, align 8
  %4 = alloca i64, align 8
  store ptr %0, ptr %3, align 8
  store i64 %1, ptr %4, align 8
  %5 = load ptr, ptr %3, align 8
  %6 = getelementptr inbounds nuw %"struct.std::array", ptr %5, i32 0, i32 0
  %7 = load i64, ptr %4, align 8
  %8 = call noundef nonnull align 4 dereferenceable(4) ptr @_ZNSt14__array_traitsIN10open_spiel16nine_mens_morris9CellStateELm24EE6_S_refERA24_KS2_m(ptr noundef nonnull align 4 dereferenceable(96) %6, i64 noundef %7) #3
  ret ptr %8
}

; Function Attrs: mustprogress uwtable
define noundef zeroext i1 @_ZNK10open_spiel16nine_mens_morris19NineMensMorrisState11CheckInMillEi(ptr noundef nonnull align 8 dereferenceable(216) %0, i32 noundef %1) #4 align 2 {
  %3 = alloca i1, align 1
  %4 = alloca ptr, align 8
  %5 = alloca i32, align 4
  %6 = alloca i32, align 4
  %7 = alloca i32, align 4
  %8 = alloca i32, align 4
  %9 = alloca i32, align 4
  %10 = alloca ptr, align 8
  %11 = alloca %"class.std::initializer_list", align 8
  %12 = alloca [2 x i32], align 4
  %13 = alloca ptr, align 8
  %14 = alloca ptr, align 8
  %15 = alloca i32, align 4
  %16 = alloca i32, align 4
  store ptr %0, ptr %4, align 8
  store i32 %1, ptr %5, align 4
  %17 = load ptr, ptr %4, align 8
  %18 = getelementptr inbounds nuw %"class.open_spiel::nine_mens_morris::NineMensMorrisState", ptr %17, i32 0, i32 1
  %19 = load i32, ptr %5, align 4
  %20 = sext i32 %19 to i64
  %21 = call noundef nonnull align 4 dereferenceable(4) ptr @_ZNKSt5arrayIN10open_spiel16nine_mens_morris9CellStateELm24EEixEm(ptr noundef nonnull align 4 dereferenceable(96) %18, i64 noundef %20) #3
  %22 = load i32, ptr %21, align 4
  %23 = call noundef i32 @_ZN10open_spiel16nine_mens_morris13StateToPlayerENS0_9CellStateE(i32 noundef %22)
  store i32 %23, ptr %6, align 4
  %24 = load i32, ptr %6, align 4
  %25 = icmp eq i32 %24, -3
  br i1 %25, label %26, label %27

26:                                               ; preds = %2
  store i1 false, ptr %3, align 1
  br label %94

27:                                               ; preds = %2
  %28 = load i32, ptr %5, align 4
  store i32 %28, ptr %7, align 4
  store i32 0, ptr %8, align 4
  br label %29

29:                                               ; preds = %90, %27
  %30 = load i32, ptr %8, align 4
  %31 = icmp slt i32 %30, 2
  br i1 %31, label %32, label %93

32:                                               ; preds = %29
  store i32 0, ptr %9, align 4
  %33 = load i32, ptr %8, align 4
  store i32 %33, ptr %12, align 4
  %34 = getelementptr inbounds i32, ptr %12, i64 1
  %35 = load i32, ptr %8, align 4
  %36 = add nsw i32 %35, 2
  store i32 %36, ptr %34, align 4
  %37 = getelementptr inbounds nuw %"class.std::initializer_list", ptr %11, i32 0, i32 0
  store ptr %12, ptr %37, align 8
  %38 = getelementptr inbounds nuw %"class.std::initializer_list", ptr %11, i32 0, i32 1
  store i64 2, ptr %38, align 8
  store ptr %11, ptr %10, align 8
  %39 = load ptr, ptr %10, align 8
  %40 = call noundef ptr @_ZNKSt16initializer_listIiE5beginEv(ptr noundef nonnull align 8 dereferenceable(16) %39) #3
  store ptr %40, ptr %13, align 8
  %41 = load ptr, ptr %10, align 8
  %42 = call noundef ptr @_ZNKSt16initializer_listIiE3endEv(ptr noundef nonnull align 8 dereferenceable(16) %41) #3
  store ptr %42, ptr %14, align 8
  br label %43

43:                                               ; preds = %82, %32
  %44 = load ptr, ptr %13, align 8
  %45 = load ptr, ptr %14, align 8
  %46 = icmp ne ptr %44, %45
  br i1 %46, label %47, label %85

47:                                               ; preds = %43
  %48 = load ptr, ptr %13, align 8
  %49 = load i32, ptr %48, align 4
  store i32 %49, ptr %15, align 4
  %50 = load i32, ptr %5, align 4
  store i32 %50, ptr %7, align 4
  store i32 0, ptr %16, align 4
  br label %51

51:                                               ; preds = %78, %47
  %52 = load i32, ptr %16, align 4
  %53 = icmp slt i32 %52, 2
  br i1 %53, label %54, label %81

54:                                               ; preds = %51
  %55 = load i32, ptr %7, align 4
  %56 = sext i32 %55 to i64
  %57 = call noundef nonnull align 4 dereferenceable(16) ptr @_ZNKSt5arrayIS_IiLm4EELm24EEixEm(ptr noundef nonnull align 4 dereferenceable(384) @_ZN10open_spiel16nine_mens_morris12_GLOBAL__N_115kPointNeighborsE, i64 noundef %56) #3
  %58 = load i32, ptr %15, align 4
  %59 = sext i32 %58 to i64
  %60 = call noundef nonnull align 4 dereferenceable(4) ptr @_ZNKSt5arrayIiLm4EEixEm(ptr noundef nonnull align 4 dereferenceable(16) %57, i64 noundef %59) #3
  %61 = load i32, ptr %60, align 4
  store i32 %61, ptr %7, align 4
  %62 = load i32, ptr %7, align 4
  %63 = icmp slt i32 %62, 0
  br i1 %63, label %73, label %64

64:                                               ; preds = %54
  %65 = getelementptr inbounds nuw %"class.open_spiel::nine_mens_morris::NineMensMorrisState", ptr %17, i32 0, i32 1
  %66 = load i32, ptr %7, align 4
  %67 = sext i32 %66 to i64
  %68 = call noundef nonnull align 4 dereferenceable(4) ptr @_ZNKSt5arrayIN10open_spiel16nine_mens_morris9CellStateELm24EEixEm(ptr noundef nonnull align 4 dereferenceable(96) %65, i64 noundef %67) #3
  %69 = load i32, ptr %68, align 4
  %70 = call noundef i32 @_ZN10open_spiel16nine_mens_morris13StateToPlayerENS0_9CellStateE(i32 noundef %69)
  %71 = load i32, ptr %6, align 4
  %72 = icmp ne i32 %70, %71
  br i1 %72, label %73, label %74

73:                                               ; preds = %64, %54
  br label %81

74:                                               ; preds = %64
  %75 = load i32, ptr %9, align 4
  %76 = add nsw i32 %75, 1
  store i32 %76, ptr %9, align 4
  br label %77

77:                                               ; preds = %74
  br label %78

78:                                               ; preds = %77
  %79 = load i32, ptr %16, align 4
  %80 = add nsw i32 %79, 1
  store i32 %80, ptr %16, align 4
  br label %51, !llvm.loop !12

81:                                               ; preds = %73, %51
  br label %82

82:                                               ; preds = %81
  %83 = load ptr, ptr %13, align 8
  %84 = getelementptr inbounds i32, ptr %83, i32 1
  store ptr %84, ptr %13, align 8
  br label %43

85:                                               ; preds = %43
  %86 = load i32, ptr %9, align 4
  %87 = icmp eq i32 %86, 2
  br i1 %87, label %88, label %89

88:                                               ; preds = %85
  store i1 true, ptr %3, align 1
  br label %94

89:                                               ; preds = %85
  br label %90

90:                                               ; preds = %89
  %91 = load i32, ptr %8, align 4
  %92 = add nsw i32 %91, 1
  store i32 %92, ptr %8, align 4
  br label %29, !llvm.loop !13

93:                                               ; preds = %29
  store i1 false, ptr %3, align 1
  br label %94

94:                                               ; preds = %93, %88, %26
  %95 = load i1, ptr %3, align 1
  ret i1 %95
}