; Function Attrs: mustprogress uwtable
define noundef zeroext i1 @_ZNK10open_spiel16nine_mens_morris19NineMensMorrisState11CheckInMillEi(ptr nocapture noundef nonnull readonly align 8 dereferenceable(216) %0, i32 noundef %1) local_unnamed_addr #3 align 2 personality ptr @__gxx_personality_v0 {
  %3 = alloca %"class.std::__cxx11::basic_string", align 8
  %4 = alloca %"class.std::allocator", align 1
  %5 = alloca %"class.std::__cxx11::basic_string", align 8
  %6 = alloca %"class.std::allocator", align 1
  %7 = alloca [2 x i32], align 4
  %8 = getelementptr inbounds nuw i8, ptr %0, i64 60
  %9 = sext i32 %1 to i64
  %10 = getelementptr inbounds [24 x i32], ptr %8, i64 0, i64 %9
  %11 = load i32, ptr %10, align 4
  call void @llvm.lifetime.start.p0(i64 32, ptr nonnull %5)
  call void @llvm.lifetime.start.p0(i64 1, ptr nonnull %6)
  switch i32 %11, label %13 [
    i32 0, label %_ZN10open_spiel16nine_mens_morris13StateToPlayerENS0_9CellStateE.exit.thread
    i32 1, label %_ZN10open_spiel16nine_mens_morris13StateToPlayerENS0_9CellStateE.exit
    i32 2, label %12
  ]

_ZN10open_spiel16nine_mens_morris13StateToPlayerENS0_9CellStateE.exit.thread: ; preds = %2
  call void @llvm.lifetime.end.p0(i64 32, ptr nonnull %5)
  call void @llvm.lifetime.end.p0(i64 1, ptr nonnull %6)
  br label %.loopexit39

12:                                               ; preds = %2
  br label %_ZN10open_spiel16nine_mens_morris13StateToPlayerENS0_9CellStateE.exit

13:                                               ; preds = %2
  call void @_ZNSaIcEC1Ev(ptr noundef nonnull align 1 dereferenceable(1) %6) #26
  invoke void @_ZNSt7__cxx1112basic_stringIcSt11char_traitsIcESaIcEEC2IS3_EEPKcRKS3_(ptr noundef nonnull align 8 dereferenceable(32) %5, ptr noundef nonnull @.str.8, ptr noundef nonnull align 1 dereferenceable(1) %6)
          to label %14 unwind label %16

14:                                               ; preds = %13
  invoke void @_ZN10open_spiel15SpielFatalErrorERKNSt7__cxx1112basic_stringIcSt11char_traitsIcESaIcEEE(ptr noundef nonnull align 8 dereferenceable(32) %5) #25
          to label %15 unwind label %18

15:                                               ; preds = %14
  unreachable

16:                                               ; preds = %13
  %17 = landingpad { ptr, i32 }
          cleanup
  br label %common.resume

18:                                               ; preds = %14
  %19 = landingpad { ptr, i32 }
          cleanup
  call void @_ZNSt7__cxx1112basic_stringIcSt11char_traitsIcESaIcEED1Ev(ptr noundef nonnull align 8 dereferenceable(32) %5) #26
  br label %common.resume

common.resume:                                    ; preds = %40, %42, %16, %18
  %.sink = phi ptr [ %6, %18 ], [ %6, %16 ], [ %4, %42 ], [ %4, %40 ]
  %common.resume.op = phi { ptr, i32 } [ %19, %18 ], [ %17, %16 ], [ %43, %42 ], [ %41, %40 ]
  call void @_ZNSaIcED1Ev(ptr noundef nonnull align 1 dereferenceable(1) %.sink) #26
  resume { ptr, i32 } %common.resume.op

_ZN10open_spiel16nine_mens_morris13StateToPlayerENS0_9CellStateE.exit: ; preds = %2, %12
  %.04.i = phi i32 [ 1, %12 ], [ 0, %2 ]
  call void @llvm.lifetime.end.p0(i64 32, ptr nonnull %5)
  call void @llvm.lifetime.end.p0(i64 1, ptr nonnull %6)
  %20 = getelementptr inbounds i8, ptr %7, i64 4
  br label %21

21:                                               ; preds = %46, %_ZN10open_spiel16nine_mens_morris13StateToPlayerENS0_9CellStateE.exit
  %.not56 = phi i1 [ false, %_ZN10open_spiel16nine_mens_morris13StateToPlayerENS0_9CellStateE.exit ], [ true, %46 ]
  %.02749 = phi i32 [ 0, %_ZN10open_spiel16nine_mens_morris13StateToPlayerENS0_9CellStateE.exit ], [ 1, %46 ]
  store i32 %.02749, ptr %7, align 4
  %22 = or disjoint i32 %.02749, 2
  store i32 %22, ptr %20, align 4
  br label %23

23:                                               ; preds = %21, %.loopexit
  %.026.idx48 = phi i64 [ 0, %21 ], [ %.026.add, %.loopexit ]
  %.02847 = phi i32 [ 0, %21 ], [ %.142, %.loopexit ]
  %.026.ptr = getelementptr inbounds i8, ptr %7, i64 %.026.idx48
  %24 = load i32, ptr %.026.ptr, align 4
  %25 = sext i32 %24 to i64
  %invariant.gep = getelementptr [4 x i32], ptr @_ZN10open_spiel16nine_mens_morris12_GLOBAL__N_115kPointNeighborsE, i64 0, i64 %25
  %26 = add i32 %.02847, 2
  br label %27

27:                                               ; preds = %23, %44
  %28 = phi i1 [ true, %23 ], [ false, %44 ]
  %.02545 = phi i32 [ %1, %23 ], [ %30, %44 ]
  %.144 = phi i32 [ %.02847, %23 ], [ %45, %44 ]
  %29 = sext i32 %.02545 to i64
  %gep = getelementptr [24 x %"struct.std::array.13"], ptr %invariant.gep, i64 0, i64 %29
  %30 = load i32, ptr %gep, align 4
  %31 = icmp slt i32 %30, 0
  br i1 %31, label %.loopexit, label %32

32:                                               ; preds = %27
  %33 = zext nneg i32 %30 to i64
  %34 = getelementptr inbounds [24 x i32], ptr %8, i64 0, i64 %33
  %35 = load i32, ptr %34, align 4
  call void @llvm.lifetime.start.p0(i64 32, ptr nonnull %3)
  call void @llvm.lifetime.start.p0(i64 1, ptr nonnull %4)
  switch i32 %35, label %37 [
    i32 0, label %_ZN10open_spiel16nine_mens_morris13StateToPlayerENS0_9CellStateE.exit34.thread
    i32 1, label %_ZN10open_spiel16nine_mens_morris13StateToPlayerENS0_9CellStateE.exit34
    i32 2, label %36
  ]

_ZN10open_spiel16nine_mens_morris13StateToPlayerENS0_9CellStateE.exit34.thread: ; preds = %32
  call void @llvm.lifetime.end.p0(i64 32, ptr nonnull %3)
  call void @llvm.lifetime.end.p0(i64 1, ptr nonnull %4)
  br label %.loopexit

36:                                               ; preds = %32
  br label %_ZN10open_spiel16nine_mens_morris13StateToPlayerENS0_9CellStateE.exit34

37:                                               ; preds = %32
  call void @_ZNSaIcEC1Ev(ptr noundef nonnull align 1 dereferenceable(1) %4) #26
  invoke void @_ZNSt7__cxx1112basic_stringIcSt11char_traitsIcESaIcEEC2IS3_EEPKcRKS3_(ptr noundef nonnull align 8 dereferenceable(32) %3, ptr noundef nonnull @.str.8, ptr noundef nonnull align 1 dereferenceable(1) %4)
          to label %38 unwind label %40

38:                                               ; preds = %37
  invoke void @_ZN10open_spiel15SpielFatalErrorERKNSt7__cxx1112basic_stringIcSt11char_traitsIcESaIcEEE(ptr noundef nonnull align 8 dereferenceable(32) %3) #25
          to label %39 unwind label %42

39:                                               ; preds = %38
  unreachable

40:                                               ; preds = %37
  %41 = landingpad { ptr, i32 }
          cleanup
  br label %common.resume

42:                                               ; preds = %38
  %43 = landingpad { ptr, i32 }
          cleanup
  call void @_ZNSt7__cxx1112basic_stringIcSt11char_traitsIcESaIcEED1Ev(ptr noundef nonnull align 8 dereferenceable(32) %3) #26
  br label %common.resume

_ZN10open_spiel16nine_mens_morris13StateToPlayerENS0_9CellStateE.exit34: ; preds = %32, %36
  %.04.i32 = phi i32 [ 1, %36 ], [ 0, %32 ]
  call void @llvm.lifetime.end.p0(i64 32, ptr nonnull %3)
  call void @llvm.lifetime.end.p0(i64 1, ptr nonnull %4)
  %.not31 = icmp eq i32 %.04.i32, %.04.i
  br i1 %.not31, label %44, label %.loopexit

44:                                               ; preds = %_ZN10open_spiel16nine_mens_morris13StateToPlayerENS0_9CellStateE.exit34
  %45 = add nsw i32 %.144, 1
  br i1 %28, label %27, label %.loopexit, !llvm.loop !12

.loopexit:                                        ; preds = %44, %_ZN10open_spiel16nine_mens_morris13StateToPlayerENS0_9CellStateE.exit34, %27, %_ZN10open_spiel16nine_mens_morris13StateToPlayerENS0_9CellStateE.exit34.thread
  %.142 = phi i32 [ %.144, %_ZN10open_spiel16nine_mens_morris13StateToPlayerENS0_9CellStateE.exit34.thread ], [ %.144, %27 ], [ %.144, %_ZN10open_spiel16nine_mens_morris13StateToPlayerENS0_9CellStateE.exit34 ], [ %26, %44 ]
  %.026.add = add nuw nsw i64 %.026.idx48, 4
  %.not = icmp eq i64 %.026.add, 8
  br i1 %.not, label %46, label %23

46:                                               ; preds = %.loopexit
  %47 = icmp eq i32 %.142, 2
  %brmerge = or i1 %47, %.not56
  br i1 %brmerge, label %.loopexit39, label %21

.loopexit39:                                      ; preds = %46, %_ZN10open_spiel16nine_mens_morris13StateToPlayerENS0_9CellStateE.exit.thread
  %.024 = phi i1 [ false, %_ZN10open_spiel16nine_mens_morris13StateToPlayerENS0_9CellStateE.exit.thread ], [ %47, %46 ]
  ret i1 %.024
}